Certificate:
    Data:
        Version: 3 (0x2)
        Serial Number:
            42:41:48:8a:2f:1f:1e:83:47:39:ba:91:45:fd:72:f6:92:3c:bf:8c
        Signature Algorithm: sha256WithRSAEncryption
        Issuer: DC=edu, DC=ucsd, DC=e4e, O=UC San Diego, OU=Engineers for Exploration, CN=UCSD Engineers for Exploration
        Validity
            Not Before: Sep  6 00:39:00 2025 GMT
            Not After : Sep  6 00:39:00 2027 GMT
        Subject: C=US, ST=California, L=La Jolla, O=UC San Diego, OU=Engineers for Exploration, CN=fishsense-temporal/emailAddress=e4e@ucsd.edu
        Subject Public Key Info:
            Public Key Algorithm: rsaEncryption
                Public-Key: (2048 bit)
                Modulus:
                    00:a6:87:67:2f:49:22:13:60:05:45:a4:6a:f5:58:
                    08:a4:f3:4d:b4:89:66:f3:54:af:da:68:dc:de:05:
                    9e:2e:c7:1d:d0:67:35:4c:53:ad:73:5f:14:6c:04:
                    ef:33:68:ba:f0:69:a9:a1:6f:3b:14:82:4f:b7:46:
                    ce:97:98:1c:66:1b:74:84:13:59:9a:e5:b1:f5:e3:
                    e4:ea:ed:62:63:a6:76:89:fd:9a:5f:71:5c:b7:8d:
                    0f:63:0e:3e:6f:8b:8a:6a:7e:0b:1f:a9:9e:1f:a5:
                    fa:43:df:6e:36:6d:b9:74:1a:5a:1f:89:d4:15:a9:
                    63:04:c9:cb:45:86:f2:c5:d2:14:83:0b:03:f7:52:
                    5c:86:f7:ec:a9:2d:6d:af:64:ba:b6:cd:e7:67:f5:
                    2f:63:20:b8:23:fa:01:e3:c0:af:48:cb:8e:9f:0a:
                    85:e8:71:a3:54:77:59:b7:05:dc:b6:68:64:e9:ca:
                    e4:94:14:41:30:35:26:17:b1:82:19:97:cd:2b:cc:
                    ba:93:08:77:c2:f0:d9:30:65:4d:d0:58:44:62:15:
                    59:67:f7:a5:85:77:34:83:88:22:c3:69:f9:4c:8f:
                    cb:d4:33:5c:cd:5f:b2:e6:e3:0a:80:af:53:26:e6:
                    cf:91:2a:54:3a:b9:99:1e:b8:ca:1a:72:0f:8b:0e:
                    d6:37
                Exponent: 65537 (0x10001)
        X509v3 extensions:
            X509v3 Key Usage: critical
                Digital Signature
            X509v3 Basic Constraints: 
                CA:FALSE
            X509v3 Extended Key Usage: 
                TLS Web Client Authentication
            X509v3 Subject Key Identifier: 
                CA:6B:00:E8:FD:60:D2:5E:E5:05:0A:F4:5D:D2:B9:91:65:DF:B3:95
            X509v3 Authority Key Identifier: 
                62:38:B1:82:A7:13:C1:4A:C2:71:9A:B6:03:C2:20:83:21:7F:26:81
            X509v3 Subject Alternative Name: 
                email:e4e@ucsd.edu
    Signature Algorithm: sha256WithRSAEncryption
    Signature Value:
        64:50:cc:fb:e7:ae:98:9e:69:be:d5:ed:d1:99:3f:75:16:d6:
        02:39:f6:71:12:53:e5:8a:b2:3a:dd:0f:0b:ed:30:e6:e3:fd:
        16:64:75:9c:ab:1d:31:8a:3e:48:f9:d5:3b:b9:da:72:2d:96:
        88:09:dd:4e:bc:ad:9a:79:bf:f0:a9:59:00:1c:6b:b8:d9:fa:
        74:fd:86:fa:bc:89:a2:1e:3c:34:29:59:a0:8a:9b:f8:c6:e6:
        99:2f:81:2a:cd:4f:ec:11:47:47:fd:ff:ad:b0:5e:19:d1:df:
        9c:bf:56:de:cb:43:a9:68:a2:c8:a1:fb:99:93:d2:80:76:d5:
        e2:b4:31:df:4a:83:8f:6b:2c:95:17:b9:c9:ce:99:97:61:0c:
        63:83:a8:6a:da:be:e3:59:f9:c9:58:0e:2b:95:ac:53:c3:4e:
        28:b4:f0:49:0a:24:bf:f8:8f:52:d0:79:37:70:e5:1a:ad:90:
        22:7c:4c:56:ad:4e:e8:34:84:d4:ad:c4:6e:ff:44:7a:92:2d:
        80:03:81:da:f8:2d:b5:e0:de:98:9a:6e:32:96:eb:2d:2a:3a:
        0c:64:08:1f:ca:da:9b:e6:10:3b:bf:a5:65:36:39:cd:d4:21:
        7e:4d:99:b0:0f:cf:6c:56:1a:92:66:c1:e3:28:fe:7e:fa:81:
        3d:d3:65:21:82:0b:7e:35:e2:26:91:0e:7f:c4:c0:ab:59:74:
        82:b8:1c:9f:e7:48:b8:98:60:8e:6f:18:9c:c1:ce:17:64:f0:
        d4:a7:d8:2e:51:d2:1a:88:f7:2d:98:23:db:b5:b8:92:9f:ef:
        db:39:eb:42:fe:fb:82:d8:1e:1c:d3:f6:1a:7e:6b:b2:b1:3c:
        67:37:34:63:54:fe:70:09:20:7a:ad:ab:e1:83:fc:7a:3a:7b:
        8d:0d:ec:2f:cb:e2:0a:ca:8b:9b:1e:e8:b4:86:64:bd:85:eb:
        43:b5:be:b3:d0:7e:6b:bd:83:83:1a:04:06:db:e9:d0:0b:96:
        99:55:30:c8:61:95:29:66:c7:85:c6:6b:f9:ab:79:d6:da:a1:
        69:02:f2:02:f7:8e:92:e2:80:fe:a5:93:9c:2c:33:4c:68:25:
        00:a4:6a:49:eb:0b:b2:3f:59:05:af:dc:f1:b8:1c:d3:29:ec:
        34:a8:29:2d:07:87:73:28:f3:0f:b1:ea:13:f1:23:37:e8:05:
        d2:52:f1:94:59:a1:6e:dc:56:c8:33:00:34:a7:46:fe:2a:eb:
        f4:94:ef:84:28:f2:f3:78:42:af:1a:29:7a:70:3d:40:29:f4:
        44:c6:12:0f:24:da:0a:63:e3:24:d6:06:fc:10:4f:63:43:b5:
        be:cc:48:ab:95:a7:27:9d
-----BEGIN CERTIFICATE-----
MIIFazCCA1OgAwIBAgIUQkFIii8fHoNHObqRRf1y9pI8v4wwDQYJKoZIhvcNAQEL
BQAwgaQxEzARBgoJkiaJk/IsZAEZFgNlZHUxFDASBgoJkiaJk/IsZAEZFgR1Y3Nk
MRMwEQYKCZImiZPyLGQBGRYDZTRlMRUwEwYDVQQKDAxVQyBTYW4gRGllZ28xIjAg
BgNVBAsMGUVuZ2luZWVycyBmb3IgRXhwbG9yYXRpb24xJzAlBgNVBAMMHlVDU0Qg
RW5naW5lZXJzIGZvciBFeHBsb3JhdGlvbjAeFw0yNTA5MDYwMDM5MDBaFw0yNzA5
MDYwMDM5MDBaMIGqMQswCQYDVQQGEwJVUzETMBEGA1UECAwKQ2FsaWZvcm5pYTER
MA8GA1UEBwwITGEgSm9sbGExFTATBgNVBAoMDFVDIFNhbiBEaWVnbzEiMCAGA1UE
CwwZRW5naW5lZXJzIGZvciBFeHBsb3JhdGlvbjEbMBkGA1UEAwwSZmlzaHNlbnNl
LXRlbXBvcmFsMRswGQYJKoZIhvcNAQkBFgxlNGVAdWNzZC5lZHUwggEiMA0GCSqG
SIb3DQEBAQUAA4IBDwAwggEKAoIBAQCmh2cvSSITYAVFpGr1WAik8020iWbzVK/a
aNzeBZ4uxx3QZzVMU61zXxRsBO8zaLrwaamhbzsUgk+3Rs6XmBxmG3SEE1ma5bH1
4+Tq7WJjpnaJ/ZpfcVy3jQ9jDj5vi4pqfgsfqZ4fpfpD3242bbl0GlofidQVqWME
yctFhvLF0hSDCwP3UlyG9+ypLW2vZLq2zedn9S9jILgj+gHjwK9Iy46fCoXocaNU
d1m3Bdy2aGTpyuSUFEEwNSYXsYIZl80rzLqTCHfC8NkwZU3QWERiFVln96WFdzSD
iCLDaflMj8vUM1zNX7Lm4wqAr1Mm5s+RKlQ6uZkeuMoacg+LDtY3AgMBAAGjgYww
gYkwDgYDVR0PAQH/BAQDAgeAMAkGA1UdEwQCMAAwEwYDVR0lBAwwCgYIKwYBBQUH
AwIwHQYDVR0OBBYEFMprAOj9YNJe5QUK9F3SuZFl37OVMB8GA1UdIwQYMBaAFGI4
sYKnE8FKwnGatgPCIIMhfyaBMBcGA1UdEQQQMA6BDGU0ZUB1Y3NkLmVkdTANBgkq
hkiG9w0BAQsFAAOCAgEAZFDM++eumJ5pvtXt0Zk/dRbWAjn2cRJT5YqyOt0PC+0w
5uP9FmR1nKsdMYo+SPnVO7naci2WiAndTrytmnm/8KlZABxruNn6dP2G+ryJoh48
NClZoIqb+MbmmS+BKs1P7BFHR/3/rbBeGdHfnL9W3stDqWiiyKH7mZPSgHbV4rQx
30qDj2sslRe5yc6Zl2EMY4Ooatq+41n5yVgOK5WsU8NOKLTwSQokv/iPUtB5N3Dl
Gq2QInxMVq1O6DSE1K3Ebv9EepItgAOB2vgtteDemJpuMpbrLSo6DGQIH8ram+YQ
O7+lZTY5zdQhfk2ZsA/PbFYakmbB4yj+fvqBPdNlIYILfjXiJpEOf8TAq1l0grgc
n+dIuJhgjm8YnMHOF2Tw1KfYLlHSGoj3LZgj27W4kp/v2znrQv77gtgeHNP2Gn5r
srE8Zzc0Y1T+cAkgeq2r4YP8ejp7jQ3sL8viCsqLmx7otIZkvYXrQ7W+s9B+a72D
gxoEBtvp0AuWmVUwyGGVKWbHhcZr+at51tqhaQLyAveOkuKA/qWTnCwzTGglAKRq
SesLsj9ZBa/c8bgc0ynsNKgpLQeHcyjzD7HqE/EjN+gF0lLxlFmhbtxWyDMANKdG
/irr9JTvhCjy83hCrxopenA9QCn0RMYSDyTaCmPjJNYG/BBPY0O1vsxIq5WnJ50=
-----END CERTIFICATE-----

Certificate:
    Data:
        Version: 3 (0x2)
        Serial Number:
            57:d0:8a:d6:88:3e:6b:0c:20:ac:9c:dd:64:5a:7b:68:0e:48:a2:07
        Signature Algorithm: sha256WithRSAEncryption
        Issuer: DC=edu, DC=ucsd, DC=e4e, O=UC San Diego, OU=Engineers for Exploration, CN=UCSD Engineers for Exploration
        Validity
            Not Before: Mar 26 02:49:55 2025 GMT
            Not After : Mar 26 02:49:55 2035 GMT
        Subject: DC=edu, DC=ucsd, DC=e4e, O=UC San Diego, OU=Engineers for Exploration, CN=UCSD Engineers for Exploration
        Subject Public Key Info:
            Public Key Algorithm: rsaEncryption
                Public-Key: (4096 bit)
                Modulus:
                    00:ce:e4:dc:49:86:de:be:f2:ef:81:54:5c:83:eb:
                    12:7c:c5:5f:b7:ac:d8:b9:12:61:4c:34:9f:23:fd:
                    cf:cd:32:43:5d:19:bc:db:57:a7:1a:75:ec:c5:d5:
                    a4:bf:6f:77:85:d0:d4:d6:73:0f:cf:a0:d2:85:8e:
                    82:1b:eb:ea:8f:f6:a7:a6:18:46:b5:da:d3:ac:a4:
                    d4:74:9b:9e:fe:1d:81:38:20:42:60:a0:5e:d3:da:
                    0a:da:46:04:f3:7e:65:5d:2d:ae:67:3a:80:01:0d:
                    1e:4d:e3:b3:f2:1e:b3:f0:3b:9e:57:1f:bc:c3:dd:
                    3c:07:75:fa:5f:3a:44:e0:3a:63:de:3d:25:3e:67:
                    8b:c8:18:66:72:4c:76:fc:c3:d2:e3:18:d6:17:d3:
                    4f:d6:51:be:2d:58:7c:58:b5:a9:4f:07:59:db:d1:
                    95:ff:d9:25:08:62:06:d4:9c:a9:dc:b6:8a:45:d7:
                    2e:4a:0c:de:9e:14:65:10:ec:57:c2:e4:41:3d:8f:
                    38:8b:6c:69:06:d1:72:5c:24:36:5f:15:f7:06:e5:
                    fe:1b:3d:9c:b6:01:c7:31:ad:7d:91:96:41:21:ad:
                    1f:60:26:e0:bb:8d:05:85:c5:0b:95:9d:ce:a6:11:
                    a9:bc:9f:50:80:b4:1c:41:1e:f9:3d:db:67:d7:c6:
                    ae:af:1b:85:b1:94:1f:b9:fc:18:0f:f2:b0:78:62:
                    59:39:bf:05:6d:7a:e7:36:6c:75:ac:b0:48:7c:4a:
                    94:9c:74:58:d9:4c:55:fd:f0:f6:e2:2b:22:f6:cc:
                    ad:35:41:ee:2b:a2:2a:3a:71:71:e8:3c:df:22:1f:
                    a3:98:af:36:85:57:bc:78:d2:c4:87:8b:3b:25:23:
                    7f:67:39:35:5e:5a:7c:69:ea:26:2c:02:60:f4:90:
                    80:df:f9:58:ea:5e:c0:47:03:9a:06:41:9a:f8:c3:
                    9a:5b:c2:42:7b:38:2c:d6:51:5f:cc:96:bb:c0:6c:
                    3f:4f:8c:f5:c0:ba:25:05:e6:aa:46:3b:5a:e9:33:
                    d0:6a:f2:6d:b3:1d:dc:a3:7a:10:67:f2:95:d2:26:
                    21:0b:4e:a5:2b:73:2d:0a:f8:41:93:91:91:77:a1:
                    ca:c9:5b:ec:49:17:7b:7e:07:50:c5:50:5d:01:b0:
                    5e:70:05:ca:8f:ab:89:ce:7a:19:a4:05:ca:73:03:
                    7f:44:0e:70:27:7c:a8:ce:9c:f6:8c:d4:74:1b:97:
                    01:5e:a8:d4:7b:38:8c:ea:23:28:7f:b4:d5:1f:2c:
                    27:b0:00:8e:f4:c4:87:4d:3a:76:b4:c7:67:fb:34:
                    6e:a5:6a:02:c5:fe:6f:b4:99:94:24:8d:41:11:a9:
                    48:fe:df
                Exponent: 65537 (0x10001)
        X509v3 extensions:
            X509v3 Key Usage: critical
                Certificate Sign, CRL Sign
            X509v3 Basic Constraints: critical
                CA:TRUE, pathlen:0
            X509v3 Subject Key Identifier: 
                62:38:B1:82:A7:13:C1:4A:C2:71:9A:B6:03:C2:20:83:21:7F:26:81
            X509v3 Authority Key Identifier: 
                C9:C9:91:53:F9:66:6F:DF:FB:54:A6:2B:38:5E:56:81:30:BD:B8:77
    Signature Algorithm: sha256WithRSAEncryption
    Signature Value:
        47:07:bb:c2:bd:8a:ad:18:ad:5b:5c:c0:45:d7:b1:69:af:e7:
        ab:32:9f:ee:63:d8:f1:90:48:89:80:f1:3e:a4:63:5e:89:5f:
        83:45:72:22:99:0d:78:c5:79:e8:02:eb:56:d9:e9:09:e4:5c:
        bf:2c:b3:d2:66:60:da:e4:ba:0b:32:d2:21:c1:be:64:14:39:
        c1:6f:4f:ff:30:ed:c5:3c:ff:84:97:ce:5d:fb:c1:ef:36:d5:
        a5:d9:bb:0b:54:74:b9:8b:28:20:4c:36:f2:63:c4:a2:de:36:
        43:7a:f0:2d:f4:f4:53:38:87:54:d1:a9:4e:b8:5f:f0:3a:16:
        dc:0f:ed:7a:a8:a6:22:d6:0b:58:cd:6b:e9:48:6e:e8:3e:dc:
        a8:b1:54:f5:82:1c:01:bf:51:ee:2f:ac:44:9b:cd:24:5b:eb:
        4b:87:94:3f:37:ff:20:57:cf:fb:f4:d2:d3:11:36:81:93:f2:
        60:80:cd:ed:da:ef:be:44:ea:1f:be:e3:1c:25:98:45:11:af:
        c4:dc:e3:d1:ae:d5:43:18:b5:fe:76:a7:3a:15:c0:ab:e9:4b:
        3c:c6:98:87:e2:d6:54:ad:ae:d8:48:a5:2f:3b:13:3c:13:16:
        d7:f5:0f:1a:58:29:49:5a:55:ed:06:9d:b6:e2:0a:dc:72:2f:
        f7:23:d9:84:e1:8a:d6:d2:ee:f5:ae:46:55:80:86:a3:94:01:
        d5:23:9b:2e:4e:78:cb:f0:4f:5b:45:a6:9f:2b:ac:9d:61:1c:
        77:2a:d7:9b:ed:70:bc:b5:d2:19:f1:23:68:bd:e6:6e:e8:2a:
        bb:90:a4:e8:d8:19:04:b5:6d:0c:6e:20:b5:a3:5b:e7:ad:15:
        a2:b3:4d:ff:c5:66:19:9e:5b:ab:db:f8:43:f8:94:85:ac:1d:
        fb:d1:b0:3a:a6:94:46:7c:10:58:f6:d9:e7:f6:37:09:bd:5a:
        6c:9e:33:0e:c3:99:bc:52:d8:38:b3:d7:05:c0:14:ee:17:d5:
        27:8c:c8:fe:80:d1:b9:1a:11:47:a9:77:51:41:49:b7:38:2f:
        ff:f5:0a:d9:e1:84:89:d7:ce:5a:49:1d:2a:40:52:92:f9:a1:
        82:0a:26:24:60:a2:00:b8:03:f7:95:ad:d6:aa:86:09:64:6c:
        a0:e7:af:1d:35:eb:b7:62:93:a8:e6:fe:03:85:cc:41:8d:38:
        1b:cf:60:a7:ff:47:d9:51:63:38:69:a0:d8:1b:d9:f1:f7:14:
        d0:e8:2a:ed:6a:2d:1e:71:bf:42:0c:7c:ac:bf:15:1d:df:64:
        13:51:06:1b:1a:3b:38:bf:aa:21:28:2e:dd:c7:c8:8f:47:2d:
        5c:58:5c:53:7a:1b:31:93
-----BEGIN CERTIFICATE-----
MIIGPjCCBCagAwIBAgIUV9CK1og+awwgrJzdZFp7aA5IogcwDQYJKoZIhvcNAQEL
BQAwgaQxEzARBgoJkiaJk/IsZAEZFgNlZHUxFDASBgoJkiaJk/IsZAEZFgR1Y3Nk
MRMwEQYKCZImiZPyLGQBGRYDZTRlMRUwEwYDVQQKDAxVQyBTYW4gRGllZ28xIjAg
BgNVBAsMGUVuZ2luZWVycyBmb3IgRXhwbG9yYXRpb24xJzAlBgNVBAMMHlVDU0Qg
RW5naW5lZXJzIGZvciBFeHBsb3JhdGlvbjAeFw0yNTAzMjYwMjQ5NTVaFw0zNTAz
MjYwMjQ5NTVaMIGkMRMwEQYKCZImiZPyLGQBGRYDZWR1MRQwEgYKCZImiZPyLGQB
GRYEdWNzZDETMBEGCgmSJomT8ixkARkWA2U0ZTEVMBMGA1UECgwMVUMgU2FuIERp
ZWdvMSIwIAYDVQQLDBlFbmdpbmVlcnMgZm9yIEV4cGxvcmF0aW9uMScwJQYDVQQD
DB5VQ1NEIEVuZ2luZWVycyBmb3IgRXhwbG9yYXRpb24wggIiMA0GCSqGSIb3DQEB
AQUAA4ICDwAwggIKAoICAQDO5NxJht6+8u+BVFyD6xJ8xV+3rNi5EmFMNJ8j/c/N
MkNdGbzbV6cadezF1aS/b3eF0NTWcw/PoNKFjoIb6+qP9qemGEa12tOspNR0m57+
HYE4IEJgoF7T2graRgTzfmVdLa5nOoABDR5N47PyHrPwO55XH7zD3TwHdfpfOkTg
OmPePSU+Z4vIGGZyTHb8w9LjGNYX00/WUb4tWHxYtalPB1nb0ZX/2SUIYgbUnKnc
topF1y5KDN6eFGUQ7FfC5EE9jziLbGkG0XJcJDZfFfcG5f4bPZy2AccxrX2RlkEh
rR9gJuC7jQWFxQuVnc6mEam8n1CAtBxBHvk922fXxq6vG4WxlB+5/BgP8rB4Ylk5
vwVteuc2bHWssEh8SpScdFjZTFX98PbiKyL2zK01Qe4roio6cXHoPN8iH6OYrzaF
V7x40sSHizslI39nOTVeWnxp6iYsAmD0kIDf+VjqXsBHA5oGQZr4w5pbwkJ7OCzW
UV/MlrvAbD9PjPXAuiUF5qpGO1rpM9Bq8m2zHdyjehBn8pXSJiELTqUrcy0K+EGT
kZF3ocrJW+xJF3t+B1DFUF0BsF5wBcqPq4nOehmkBcpzA39EDnAnfKjOnPaM1HQb
lwFeqNR7OIzqIyh/tNUfLCewAI70xIdNOna0x2f7NG6lagLF/m+0mZQkjUERqUj+
3wIDAQABo2YwZDAOBgNVHQ8BAf8EBAMCAQYwEgYDVR0TAQH/BAgwBgEB/wIBADAd
BgNVHQ4EFgQUYjixgqcTwUrCcZq2A8IggyF/JoEwHwYDVR0jBBgwFoAUycmRU/lm
b9/7VKYrOF5WgTC9uHcwDQYJKoZIhvcNAQELBQADggIBAEcHu8K9iq0YrVtcwEXX
sWmv56syn+5j2PGQSImA8T6kY16JX4NFciKZDXjFeegC61bZ6QnkXL8ss9JmYNrk
ugsy0iHBvmQUOcFvT/8w7cU8/4SXzl37we821aXZuwtUdLmLKCBMNvJjxKLeNkN6
8C309FM4h1TRqU64X/A6FtwP7XqopiLWC1jNa+lIbug+3KixVPWCHAG/Ue4vrESb
zSRb60uHlD83/yBXz/v00tMRNoGT8mCAze3a775E6h++4xwlmEURr8Tc49Gu1UMY
tf52pzoVwKvpSzzGmIfi1lStrthIpS87EzwTFtf1DxpYKUlaVe0GnbbiCtxyL/cj
2YThitbS7vWuRlWAhqOUAdUjmy5OeMvwT1tFpp8rrJ1hHHcq15vtcLy10hnxI2i9
5m7oKruQpOjYGQS1bQxuILWjW+etFaKzTf/FZhmeW6vb+EP4lIWsHfvRsDqmlEZ8
EFj22ef2Nwm9WmyeMw7DmbxS2Diz1wXAFO4X1SeMyP6A0bkaEUepd1FBSbc4L//1
CtnhhInXzlpJHSpAUpL5oYIKJiRgogC4A/eVrdaqhglkbKDnrx0167dik6jm/gOF
zEGNOBvPYKf/R9lRYzhpoNgb2fH3FNDoKu1qLR5xv0IMfKy/FR3fZBNRBhsaOzi/
qiEoLt3HyI9HLVxYXFN6GzGT
-----END CERTIFICATE-----
