Certificate:
    Data:
        Version: 3 (0x2)
        Serial Number:
            5f:5c:7a:00:08:c1:d1:0a:d6:04:38:e2:d9:97:fb:e4:e8:cb:4d:5f
        Signature Algorithm: sha256WithRSAEncryption
        Issuer: DC=edu, DC=ucsd, DC=e4e, O=UC San Diego, OU=Engineers for Exploration, CN=UCSD Engineers for Exploration
        Validity
            Not Before: Sep  9 18:52:06 2025 GMT
            Not After : Sep  9 18:52:06 2027 GMT
        Subject: C=US, ST=California, L=La Jolla, O=UC San Diego, OU=Engineers for Exploration, CN=fishsense-api-workflow-worker/emailAddress=e4e@ucsd.edu
        Subject Public Key Info:
            Public Key Algorithm: rsaEncryption
                Public-Key: (2048 bit)
                Modulus:
                    00:97:ac:bc:38:a6:c5:fd:8f:c8:5b:89:23:47:39:
                    9a:60:b9:ed:f8:45:bf:ae:51:6b:ad:b9:27:ae:1e:
                    ec:de:52:63:7e:f5:5d:39:8a:04:3c:d6:03:d6:28:
                    39:44:1d:b6:84:a0:9f:62:85:b3:61:7f:23:3c:e9:
                    1b:4c:d3:40:f1:79:cf:c8:e6:90:53:03:f6:c3:c0:
                    dd:2e:60:55:c2:12:50:a8:61:26:11:75:6a:6e:69:
                    ef:34:a9:72:86:5f:a5:9d:a8:41:77:a5:c6:1c:40:
                    76:65:c7:06:be:bd:b0:18:2b:33:02:2a:70:f7:7d:
                    f9:69:a1:aa:6c:35:c1:1e:56:c9:74:7a:de:70:dc:
                    3f:ee:d8:d6:09:81:77:dd:b5:7b:9a:89:5b:a4:e9:
                    39:35:c2:ab:d4:10:77:38:4e:15:b6:63:aa:2a:c4:
                    4e:00:25:d5:4f:7f:51:cb:60:cf:78:ca:2c:d8:ca:
                    a6:82:02:45:12:84:03:0a:e9:36:59:74:3e:cd:b0:
                    e0:b8:1d:a8:aa:47:98:bc:2f:76:85:4e:ff:3b:15:
                    74:ea:a8:87:50:1d:02:92:b3:32:d6:15:2e:71:99:
                    d8:c7:9a:72:0c:b2:7a:16:11:90:45:cb:33:34:1b:
                    52:af:69:8d:d3:b6:a5:d2:19:b8:4f:a8:77:89:90:
                    11:d9
                Exponent: 65537 (0x10001)
        X509v3 extensions:
            X509v3 Key Usage: critical
                Digital Signature
            X509v3 Basic Constraints: 
                CA:FALSE
            X509v3 Extended Key Usage: 
                TLS Web Client Authentication
            X509v3 Subject Key Identifier: 
                C6:C7:1D:D9:5D:7A:64:6D:BC:FA:F9:7F:CE:FB:28:1D:6F:97:2F:D0
            X509v3 Authority Key Identifier: 
                62:38:B1:82:A7:13:C1:4A:C2:71:9A:B6:03:C2:20:83:21:7F:26:81
            X509v3 Subject Alternative Name: 
                email:e4e@ucsd.edu
    Signature Algorithm: sha256WithRSAEncryption
    Signature Value:
        02:2c:5c:76:ed:7e:99:ce:7e:71:1d:cb:b5:ea:f9:cd:4e:72:
        5a:e2:46:6f:ab:8d:90:f9:41:4e:3f:2d:42:a0:f5:9a:50:49:
        23:ed:1c:4a:13:bb:d7:1f:5d:78:bb:6b:2f:7b:47:8a:25:98:
        00:7a:83:a6:22:f0:4e:42:52:58:74:4e:5e:a9:e2:bd:4b:ef:
        7e:15:a8:66:7d:a3:94:79:e0:40:2b:bd:9b:9a:56:b2:27:cd:
        83:89:2d:12:f8:a2:bb:43:ca:02:c6:b2:53:ed:6c:f2:df:a3:
        ca:eb:9e:e1:6e:77:91:6a:a7:b7:ee:10:82:a4:0a:0f:b7:7d:
        f3:0a:f5:af:7a:28:7e:26:75:80:de:99:80:5e:2b:27:c7:c5:
        65:13:ba:7e:cc:76:1b:17:0c:52:0d:68:dd:d1:88:91:96:6f:
        a0:98:ae:d3:ba:62:b9:41:e5:fd:c0:9c:2b:3b:4a:f2:53:29:
        62:f7:06:87:23:cd:dd:60:0c:87:44:c2:b2:19:50:ae:1c:e5:
        47:f3:e0:c6:02:6d:ff:8b:72:a3:df:4b:7a:d5:20:98:94:a9:
        7b:aa:8d:0b:6a:ec:cc:75:ea:99:2a:cc:fb:3c:5f:e0:23:3c:
        e6:97:14:65:a4:55:6e:cc:2b:39:98:b5:3a:c5:30:de:19:b2:
        76:63:13:b2:88:81:8e:8e:be:8d:d8:f9:e4:33:f8:93:ae:3f:
        80:69:c5:f9:ee:f6:e2:41:1a:6f:48:c7:12:8b:64:00:5b:dc:
        4a:cb:85:d1:92:2f:49:b1:26:a5:b7:6b:fd:84:bc:45:6f:9f:
        a9:d5:fa:27:09:e5:55:60:16:d4:71:ce:cf:4c:15:64:c9:e8:
        f5:fa:ee:32:94:18:e6:42:f2:0e:c8:9a:c1:54:ed:9a:3c:8e:
        7b:01:3f:b2:7e:b2:82:cb:a3:bf:5b:59:fc:ef:51:b6:41:02:
        b5:11:a4:5e:47:dd:b3:23:a2:ed:3e:84:be:60:27:e6:f3:a2:
        70:0f:d4:3b:36:6f:a1:9e:89:b4:e1:0a:26:69:3e:20:cd:31:
        fd:7c:85:9a:66:e1:13:91:12:b8:b6:8f:e2:4c:d0:3a:96:2f:
        f0:a5:d9:8f:bf:06:50:99:cc:ad:73:dd:8d:f8:d3:01:37:ac:
        1a:e9:83:21:b8:12:b4:e2:a4:0b:99:31:ad:48:1e:b6:ae:ac:
        64:e6:e2:68:61:19:21:08:2c:ed:e6:3d:b9:41:04:eb:6c:da:
        75:f5:32:a9:f1:6a:01:27:db:46:d5:c9:1e:bd:f4:12:61:f9:
        0c:a7:a7:b6:c5:f0:3d:f7:06:8e:28:bc:3a:e9:56:eb:5e:c2:
        87:48:bb:59:e8:72:9b:c4
-----BEGIN CERTIFICATE-----
MIIFdjCCA16gAwIBAgIUX1x6AAjB0QrWBDji2Zf75OjLTV8wDQYJKoZIhvcNAQEL
BQAwgaQxEzARBgoJkiaJk/IsZAEZFgNlZHUxFDASBgoJkiaJk/IsZAEZFgR1Y3Nk
MRMwEQYKCZImiZPyLGQBGRYDZTRlMRUwEwYDVQQKDAxVQyBTYW4gRGllZ28xIjAg
BgNVBAsMGUVuZ2luZWVycyBmb3IgRXhwbG9yYXRpb24xJzAlBgNVBAMMHlVDU0Qg
RW5naW5lZXJzIGZvciBFeHBsb3JhdGlvbjAeFw0yNTA5MDkxODUyMDZaFw0yNzA5
MDkxODUyMDZaMIG1MQswCQYDVQQGEwJVUzETMBEGA1UECAwKQ2FsaWZvcm5pYTER
MA8GA1UEBwwITGEgSm9sbGExFTATBgNVBAoMDFVDIFNhbiBEaWVnbzEiMCAGA1UE
CwwZRW5naW5lZXJzIGZvciBFeHBsb3JhdGlvbjEmMCQGA1UEAwwdZmlzaHNlbnNl
LWFwaS13b3JrZmxvdy13b3JrZXIxGzAZBgkqhkiG9w0BCQEWDGU0ZUB1Y3NkLmVk
dTCCASIwDQYJKoZIhvcNAQEBBQADggEPADCCAQoCggEBAJesvDimxf2PyFuJI0c5
mmC57fhFv65Ra625J64e7N5SY371XTmKBDzWA9YoOUQdtoSgn2KFs2F/IzzpG0zT
QPF5z8jmkFMD9sPA3S5gVcISUKhhJhF1am5p7zSpcoZfpZ2oQXelxhxAdmXHBr69
sBgrMwIqcPd9+Wmhqmw1wR5WyXR63nDcP+7Y1gmBd921e5qJW6TpOTXCq9QQdzhO
FbZjqirETgAl1U9/Uctgz3jKLNjKpoICRRKEAwrpNll0Ps2w4LgdqKpHmLwvdoVO
/zsVdOqoh1AdApKzMtYVLnGZ2MeacgyyehYRkEXLMzQbUq9pjdO2pdIZuE+od4mQ
EdkCAwEAAaOBjDCBiTAOBgNVHQ8BAf8EBAMCB4AwCQYDVR0TBAIwADATBgNVHSUE
DDAKBggrBgEFBQcDAjAdBgNVHQ4EFgQUxscd2V16ZG28+vl/zvsoHW+XL9AwHwYD
VR0jBBgwFoAUYjixgqcTwUrCcZq2A8IggyF/JoEwFwYDVR0RBBAwDoEMZTRlQHVj
c2QuZWR1MA0GCSqGSIb3DQEBCwUAA4ICAQACLFx27X6Zzn5xHcu16vnNTnJa4kZv
q42Q+UFOPy1CoPWaUEkj7RxKE7vXH114u2sve0eKJZgAeoOmIvBOQlJYdE5eqeK9
S+9+FahmfaOUeeBAK72bmlayJ82DiS0S+KK7Q8oCxrJT7Wzy36PK657hbneRaqe3
7hCCpAoPt33zCvWveih+JnWA3pmAXisnx8VlE7p+zHYbFwxSDWjd0YiRlm+gmK7T
umK5QeX9wJwrO0ryUyli9waHI83dYAyHRMKyGVCuHOVH8+DGAm3/i3Kj30t61SCY
lKl7qo0LauzMdeqZKsz7PF/gIzzmlxRlpFVuzCs5mLU6xTDeGbJ2YxOyiIGOjr6N
2PnkM/iTrj+AacX57vbiQRpvSMcSi2QAW9xKy4XRki9JsSalt2v9hLxFb5+p1fon
CeVVYBbUcc7PTBVkyej1+u4ylBjmQvIOyJrBVO2aPI57AT+yfrKCy6O/W1n871G2
QQK1EaReR92zI6LtPoS+YCfm86JwD9Q7Nm+hnom04QomaT4gzTH9fIWaZuETkRK4
to/iTNA6li/wpdmPvwZQmcytc92N+NMBN6wa6YMhuBK04qQLmTGtSB62rqxk5uJo
YRkhCCzt5j25QQTrbNp19TKp8WoBJ9tG1ckevfQSYfkMp6e2xfA99waOKLw66Vbr
XsKHSLtZ6HKbxA==
-----END CERTIFICATE-----

Certificate:
    Data:
        Version: 3 (0x2)
        Serial Number:
            57:d0:8a:d6:88:3e:6b:0c:20:ac:9c:dd:64:5a:7b:68:0e:48:a2:07
        Signature Algorithm: sha256WithRSAEncryption
        Issuer: DC=edu, DC=ucsd, DC=e4e, O=UC San Diego, OU=Engineers for Exploration, CN=UCSD Engineers for Exploration
        Validity
            Not Before: Mar 26 02:49:55 2025 GMT
            Not After : Mar 26 02:49:55 2035 GMT
        Subject: DC=edu, DC=ucsd, DC=e4e, O=UC San Diego, OU=Engineers for Exploration, CN=UCSD Engineers for Exploration
        Subject Public Key Info:
            Public Key Algorithm: rsaEncryption
                Public-Key: (4096 bit)
                Modulus:
                    00:ce:e4:dc:49:86:de:be:f2:ef:81:54:5c:83:eb:
                    12:7c:c5:5f:b7:ac:d8:b9:12:61:4c:34:9f:23:fd:
                    cf:cd:32:43:5d:19:bc:db:57:a7:1a:75:ec:c5:d5:
                    a4:bf:6f:77:85:d0:d4:d6:73:0f:cf:a0:d2:85:8e:
                    82:1b:eb:ea:8f:f6:a7:a6:18:46:b5:da:d3:ac:a4:
                    d4:74:9b:9e:fe:1d:81:38:20:42:60:a0:5e:d3:da:
                    0a:da:46:04:f3:7e:65:5d:2d:ae:67:3a:80:01:0d:
                    1e:4d:e3:b3:f2:1e:b3:f0:3b:9e:57:1f:bc:c3:dd:
                    3c:07:75:fa:5f:3a:44:e0:3a:63:de:3d:25:3e:67:
                    8b:c8:18:66:72:4c:76:fc:c3:d2:e3:18:d6:17:d3:
                    4f:d6:51:be:2d:58:7c:58:b5:a9:4f:07:59:db:d1:
                    95:ff:d9:25:08:62:06:d4:9c:a9:dc:b6:8a:45:d7:
                    2e:4a:0c:de:9e:14:65:10:ec:57:c2:e4:41:3d:8f:
                    38:8b:6c:69:06:d1:72:5c:24:36:5f:15:f7:06:e5:
                    fe:1b:3d:9c:b6:01:c7:31:ad:7d:91:96:41:21:ad:
                    1f:60:26:e0:bb:8d:05:85:c5:0b:95:9d:ce:a6:11:
                    a9:bc:9f:50:80:b4:1c:41:1e:f9:3d:db:67:d7:c6:
                    ae:af:1b:85:b1:94:1f:b9:fc:18:0f:f2:b0:78:62:
                    59:39:bf:05:6d:7a:e7:36:6c:75:ac:b0:48:7c:4a:
                    94:9c:74:58:d9:4c:55:fd:f0:f6:e2:2b:22:f6:cc:
                    ad:35:41:ee:2b:a2:2a:3a:71:71:e8:3c:df:22:1f:
                    a3:98:af:36:85:57:bc:78:d2:c4:87:8b:3b:25:23:
                    7f:67:39:35:5e:5a:7c:69:ea:26:2c:02:60:f4:90:
                    80:df:f9:58:ea:5e:c0:47:03:9a:06:41:9a:f8:c3:
                    9a:5b:c2:42:7b:38:2c:d6:51:5f:cc:96:bb:c0:6c:
                    3f:4f:8c:f5:c0:ba:25:05:e6:aa:46:3b:5a:e9:33:
                    d0:6a:f2:6d:b3:1d:dc:a3:7a:10:67:f2:95:d2:26:
                    21:0b:4e:a5:2b:73:2d:0a:f8:41:93:91:91:77:a1:
                    ca:c9:5b:ec:49:17:7b:7e:07:50:c5:50:5d:01:b0:
                    5e:70:05:ca:8f:ab:89:ce:7a:19:a4:05:ca:73:03:
                    7f:44:0e:70:27:7c:a8:ce:9c:f6:8c:d4:74:1b:97:
                    01:5e:a8:d4:7b:38:8c:ea:23:28:7f:b4:d5:1f:2c:
                    27:b0:00:8e:f4:c4:87:4d:3a:76:b4:c7:67:fb:34:
                    6e:a5:6a:02:c5:fe:6f:b4:99:94:24:8d:41:11:a9:
                    48:fe:df
                Exponent: 65537 (0x10001)
        X509v3 extensions:
            X509v3 Key Usage: critical
                Certificate Sign, CRL Sign
            X509v3 Basic Constraints: critical
                CA:TRUE, pathlen:0
            X509v3 Subject Key Identifier: 
                62:38:B1:82:A7:13:C1:4A:C2:71:9A:B6:03:C2:20:83:21:7F:26:81
            X509v3 Authority Key Identifier: 
                C9:C9:91:53:F9:66:6F:DF:FB:54:A6:2B:38:5E:56:81:30:BD:B8:77
    Signature Algorithm: sha256WithRSAEncryption
    Signature Value:
        47:07:bb:c2:bd:8a:ad:18:ad:5b:5c:c0:45:d7:b1:69:af:e7:
        ab:32:9f:ee:63:d8:f1:90:48:89:80:f1:3e:a4:63:5e:89:5f:
        83:45:72:22:99:0d:78:c5:79:e8:02:eb:56:d9:e9:09:e4:5c:
        bf:2c:b3:d2:66:60:da:e4:ba:0b:32:d2:21:c1:be:64:14:39:
        c1:6f:4f:ff:30:ed:c5:3c:ff:84:97:ce:5d:fb:c1:ef:36:d5:
        a5:d9:bb:0b:54:74:b9:8b:28:20:4c:36:f2:63:c4:a2:de:36:
        43:7a:f0:2d:f4:f4:53:38:87:54:d1:a9:4e:b8:5f:f0:3a:16:
        dc:0f:ed:7a:a8:a6:22:d6:0b:58:cd:6b:e9:48:6e:e8:3e:dc:
        a8:b1:54:f5:82:1c:01:bf:51:ee:2f:ac:44:9b:cd:24:5b:eb:
        4b:87:94:3f:37:ff:20:57:cf:fb:f4:d2:d3:11:36:81:93:f2:
        60:80:cd:ed:da:ef:be:44:ea:1f:be:e3:1c:25:98:45:11:af:
        c4:dc:e3:d1:ae:d5:43:18:b5:fe:76:a7:3a:15:c0:ab:e9:4b:
        3c:c6:98:87:e2:d6:54:ad:ae:d8:48:a5:2f:3b:13:3c:13:16:
        d7:f5:0f:1a:58:29:49:5a:55:ed:06:9d:b6:e2:0a:dc:72:2f:
        f7:23:d9:84:e1:8a:d6:d2:ee:f5:ae:46:55:80:86:a3:94:01:
        d5:23:9b:2e:4e:78:cb:f0:4f:5b:45:a6:9f:2b:ac:9d:61:1c:
        77:2a:d7:9b:ed:70:bc:b5:d2:19:f1:23:68:bd:e6:6e:e8:2a:
        bb:90:a4:e8:d8:19:04:b5:6d:0c:6e:20:b5:a3:5b:e7:ad:15:
        a2:b3:4d:ff:c5:66:19:9e:5b:ab:db:f8:43:f8:94:85:ac:1d:
        fb:d1:b0:3a:a6:94:46:7c:10:58:f6:d9:e7:f6:37:09:bd:5a:
        6c:9e:33:0e:c3:99:bc:52:d8:38:b3:d7:05:c0:14:ee:17:d5:
        27:8c:c8:fe:80:d1:b9:1a:11:47:a9:77:51:41:49:b7:38:2f:
        ff:f5:0a:d9:e1:84:89:d7:ce:5a:49:1d:2a:40:52:92:f9:a1:
        82:0a:26:24:60:a2:00:b8:03:f7:95:ad:d6:aa:86:09:64:6c:
        a0:e7:af:1d:35:eb:b7:62:93:a8:e6:fe:03:85:cc:41:8d:38:
        1b:cf:60:a7:ff:47:d9:51:63:38:69:a0:d8:1b:d9:f1:f7:14:
        d0:e8:2a:ed:6a:2d:1e:71:bf:42:0c:7c:ac:bf:15:1d:df:64:
        13:51:06:1b:1a:3b:38:bf:aa:21:28:2e:dd:c7:c8:8f:47:2d:
        5c:58:5c:53:7a:1b:31:93
-----BEGIN CERTIFICATE-----
MIIGPjCCBCagAwIBAgIUV9CK1og+awwgrJzdZFp7aA5IogcwDQYJKoZIhvcNAQEL
BQAwgaQxEzARBgoJkiaJk/IsZAEZFgNlZHUxFDASBgoJkiaJk/IsZAEZFgR1Y3Nk
MRMwEQYKCZImiZPyLGQBGRYDZTRlMRUwEwYDVQQKDAxVQyBTYW4gRGllZ28xIjAg
BgNVBAsMGUVuZ2luZWVycyBmb3IgRXhwbG9yYXRpb24xJzAlBgNVBAMMHlVDU0Qg
RW5naW5lZXJzIGZvciBFeHBsb3JhdGlvbjAeFw0yNTAzMjYwMjQ5NTVaFw0zNTAz
MjYwMjQ5NTVaMIGkMRMwEQYKCZImiZPyLGQBGRYDZWR1MRQwEgYKCZImiZPyLGQB
GRYEdWNzZDETMBEGCgmSJomT8ixkARkWA2U0ZTEVMBMGA1UECgwMVUMgU2FuIERp
ZWdvMSIwIAYDVQQLDBlFbmdpbmVlcnMgZm9yIEV4cGxvcmF0aW9uMScwJQYDVQQD
DB5VQ1NEIEVuZ2luZWVycyBmb3IgRXhwbG9yYXRpb24wggIiMA0GCSqGSIb3DQEB
AQUAA4ICDwAwggIKAoICAQDO5NxJht6+8u+BVFyD6xJ8xV+3rNi5EmFMNJ8j/c/N
MkNdGbzbV6cadezF1aS/b3eF0NTWcw/PoNKFjoIb6+qP9qemGEa12tOspNR0m57+
HYE4IEJgoF7T2graRgTzfmVdLa5nOoABDR5N47PyHrPwO55XH7zD3TwHdfpfOkTg
OmPePSU+Z4vIGGZyTHb8w9LjGNYX00/WUb4tWHxYtalPB1nb0ZX/2SUIYgbUnKnc
topF1y5KDN6eFGUQ7FfC5EE9jziLbGkG0XJcJDZfFfcG5f4bPZy2AccxrX2RlkEh
rR9gJuC7jQWFxQuVnc6mEam8n1CAtBxBHvk922fXxq6vG4WxlB+5/BgP8rB4Ylk5
vwVteuc2bHWssEh8SpScdFjZTFX98PbiKyL2zK01Qe4roio6cXHoPN8iH6OYrzaF
V7x40sSHizslI39nOTVeWnxp6iYsAmD0kIDf+VjqXsBHA5oGQZr4w5pbwkJ7OCzW
UV/MlrvAbD9PjPXAuiUF5qpGO1rpM9Bq8m2zHdyjehBn8pXSJiELTqUrcy0K+EGT
kZF3ocrJW+xJF3t+B1DFUF0BsF5wBcqPq4nOehmkBcpzA39EDnAnfKjOnPaM1HQb
lwFeqNR7OIzqIyh/tNUfLCewAI70xIdNOna0x2f7NG6lagLF/m+0mZQkjUERqUj+
3wIDAQABo2YwZDAOBgNVHQ8BAf8EBAMCAQYwEgYDVR0TAQH/BAgwBgEB/wIBADAd
BgNVHQ4EFgQUYjixgqcTwUrCcZq2A8IggyF/JoEwHwYDVR0jBBgwFoAUycmRU/lm
b9/7VKYrOF5WgTC9uHcwDQYJKoZIhvcNAQELBQADggIBAEcHu8K9iq0YrVtcwEXX
sWmv56syn+5j2PGQSImA8T6kY16JX4NFciKZDXjFeegC61bZ6QnkXL8ss9JmYNrk
ugsy0iHBvmQUOcFvT/8w7cU8/4SXzl37we821aXZuwtUdLmLKCBMNvJjxKLeNkN6
8C309FM4h1TRqU64X/A6FtwP7XqopiLWC1jNa+lIbug+3KixVPWCHAG/Ue4vrESb
zSRb60uHlD83/yBXz/v00tMRNoGT8mCAze3a775E6h++4xwlmEURr8Tc49Gu1UMY
tf52pzoVwKvpSzzGmIfi1lStrthIpS87EzwTFtf1DxpYKUlaVe0GnbbiCtxyL/cj
2YThitbS7vWuRlWAhqOUAdUjmy5OeMvwT1tFpp8rrJ1hHHcq15vtcLy10hnxI2i9
5m7oKruQpOjYGQS1bQxuILWjW+etFaKzTf/FZhmeW6vb+EP4lIWsHfvRsDqmlEZ8
EFj22ef2Nwm9WmyeMw7DmbxS2Diz1wXAFO4X1SeMyP6A0bkaEUepd1FBSbc4L//1
CtnhhInXzlpJHSpAUpL5oYIKJiRgogC4A/eVrdaqhglkbKDnrx0167dik6jm/gOF
zEGNOBvPYKf/R9lRYzhpoNgb2fH3FNDoKu1qLR5xv0IMfKy/FR3fZBNRBhsaOzi/
qiEoLt3HyI9HLVxYXFN6GzGT
-----END CERTIFICATE-----
