Certificate:
    Data:
        Version: 3 (0x2)
        Serial Number:
            5e:eb:04:a8:a5:28:98:99:48:fb:10:86:b3:b5:1e:3f:b8:1c:9e:7e
        Signature Algorithm: sha256WithRSAEncryption
        Issuer: DC=edu, DC=ucsd, DC=e4e, O=UC San Diego, OU=Engineers for Exploration, CN=UCSD Engineers for Exploration
        Validity
            Not Before: Mar 26 02:49:30 2025 GMT
            Not After : Mar 26 02:49:30 2045 GMT
        Subject: DC=edu, DC=ucsd, DC=e4e, O=UC San Diego, OU=Engineers for Exploration, CN=UCSD Engineers for Exploration
        Subject Public Key Info:
            Public Key Algorithm: rsaEncryption
                Public-Key: (4096 bit)
                Modulus:
                    00:a4:e5:66:01:a4:ee:c5:c4:31:22:c3:bc:fa:bc:
                    c9:db:31:16:42:d0:62:ae:74:84:ef:cb:de:7a:22:
                    ee:17:43:3e:fb:ac:52:db:2e:75:21:d8:f3:18:84:
                    91:7a:61:55:cf:c8:5f:45:28:8c:b2:dc:b6:0d:02:
                    8b:47:91:a5:bb:40:d9:b8:64:90:aa:64:19:c1:09:
                    59:f0:3f:56:12:35:42:35:b2:40:5c:3f:19:64:d9:
                    b2:96:c0:8e:92:21:4e:70:b4:10:ae:95:54:a2:9f:
                    d2:59:e8:c2:99:96:d2:c7:2d:83:bb:da:1a:47:9a:
                    2c:28:b7:59:58:0e:47:b3:74:a2:0c:01:b1:2d:a5:
                    09:33:5f:e9:13:2d:e7:8a:8d:4c:23:a1:92:6b:07:
                    3a:d9:5c:ac:1d:2d:59:f6:78:64:38:07:29:56:43:
                    b3:e6:a9:6e:a0:d4:05:71:25:54:34:ff:21:0a:3b:
                    13:f6:77:9e:dd:ba:8a:69:97:5e:90:92:9a:19:7f:
                    1f:45:7c:40:f9:95:6c:58:53:89:c7:27:45:43:47:
                    15:e0:4f:a3:44:43:69:6a:5b:dc:9f:00:d7:c9:c5:
                    24:5a:58:b5:6c:33:23:75:90:7a:a4:51:8d:68:2e:
                    73:66:76:3d:81:bf:35:b3:e2:d6:87:75:a1:c0:49:
                    f2:37:0f:68:a4:20:e8:4f:b1:a1:1a:02:5d:ec:b8:
                    72:fa:e7:e1:9d:ea:ff:d9:e9:3e:96:7c:12:41:93:
                    28:da:f6:06:e2:77:12:27:f1:b2:55:06:8f:8e:4b:
                    22:00:ff:ae:d6:6e:05:bb:b1:a4:c4:15:2d:25:b7:
                    c7:28:ad:14:a7:9d:5a:41:19:28:01:36:81:38:3d:
                    4b:47:99:96:01:69:11:58:ec:54:dd:57:8d:70:68:
                    f6:94:d2:32:06:22:29:e7:95:b8:bb:06:7c:15:7a:
                    e1:19:7e:a9:84:76:c9:ef:fc:16:74:b7:06:c3:9e:
                    9e:94:ad:03:98:52:6c:2e:a0:56:97:fd:8c:d0:f3:
                    29:ad:0c:ca:61:da:45:65:79:46:42:05:e0:15:94:
                    94:c3:7f:2c:5e:a4:19:29:a7:45:3f:2e:78:a9:84:
                    f2:ec:58:15:7f:19:3b:da:2b:9e:29:59:44:93:71:
                    0f:9d:af:e7:47:d3:85:ae:d9:95:83:bc:c8:9b:ac:
                    e8:96:83:ee:dd:d0:a2:b0:c5:86:45:f4:d4:39:db:
                    e7:f9:4e:06:57:32:ea:b8:e6:83:ef:5d:3d:00:b9:
                    0c:4f:59:82:a6:a0:32:56:59:07:cd:6f:b7:ad:e9:
                    af:1f:08:ef:ed:d1:ab:20:d9:dd:72:50:a2:b9:db:
                    84:47:4f
                Exponent: 65537 (0x10001)
        X509v3 extensions:
            X509v3 Key Usage: critical
                Certificate Sign, CRL Sign
            X509v3 Basic Constraints: critical
                CA:TRUE
            X509v3 Subject Key Identifier: 
                C9:C9:91:53:F9:66:6F:DF:FB:54:A6:2B:38:5E:56:81:30:BD:B8:77
            X509v3 Authority Key Identifier: 
                C9:C9:91:53:F9:66:6F:DF:FB:54:A6:2B:38:5E:56:81:30:BD:B8:77
    Signature Algorithm: sha256WithRSAEncryption
    Signature Value:
        68:8b:25:45:bf:8e:d1:10:7c:d0:42:ad:fc:f0:6a:66:86:97:
        de:89:ff:60:64:cd:c7:d8:03:ca:cc:14:8c:e2:6e:8d:57:ce:
        64:8f:43:3e:14:27:e9:48:2a:ad:a0:7a:ed:b9:01:0d:0f:c0:
        9d:55:a2:7d:6e:95:88:6d:49:70:a4:e1:b4:85:e8:8f:c1:d6:
        fd:6f:5d:90:0f:b0:d0:6c:c9:db:46:bb:05:a0:e4:67:1a:67:
        0f:55:cc:78:0d:0f:01:c5:38:01:52:e5:34:42:ab:8f:ba:d7:
        80:98:00:60:eb:67:4a:f2:ad:bc:ca:c0:f9:38:cb:fb:28:d7:
        00:29:b6:24:c5:23:10:6f:5b:9c:3a:1a:14:c6:60:a5:9b:68:
        1a:21:f6:4a:52:30:e4:65:74:4c:26:d8:cd:a4:4f:05:79:fa:
        5f:00:b3:18:49:14:45:f0:08:65:84:69:8f:5c:4b:36:b7:89:
        98:b7:98:59:9b:1b:75:5a:07:0f:7b:2b:83:3c:d8:83:ff:b4:
        8b:e7:86:c7:6f:84:7b:19:c1:12:05:22:08:3d:ce:f9:a4:2a:
        1a:01:29:8a:19:cc:c7:dd:f6:1e:b7:5b:c2:aa:1b:5e:f6:f8:
        da:01:25:30:b5:da:ba:2c:d5:49:9a:76:db:e8:d4:d9:35:ea:
        8c:9f:2a:6d:b2:a5:99:1c:b7:d2:29:5c:f2:21:64:1d:2b:ee:
        88:4b:fe:85:b8:29:c8:90:7e:b2:f6:1e:db:f2:ea:64:75:bb:
        a4:16:e7:29:79:b7:a3:ee:41:32:58:3a:a1:2f:a1:bf:84:16:
        de:64:c7:a7:f3:3e:5f:16:bb:62:47:2d:bf:e8:d5:dd:84:eb:
        5f:16:81:00:68:ad:bc:6b:25:09:dc:95:c3:eb:73:e4:e5:f8:
        4c:f6:f0:cb:a1:27:77:cb:76:54:4d:f3:37:81:e0:07:a0:4f:
        37:27:ea:bf:ce:86:52:f8:e4:64:36:a1:5d:bf:43:b6:31:31:
        d3:c2:d8:d6:e6:ee:75:af:cf:98:2a:ed:ef:dc:03:bf:b0:a2:
        1b:2b:e6:65:e9:c4:7d:f2:46:b7:38:61:f0:01:cb:41:c1:47:
        37:d7:3c:70:55:e1:42:df:ff:7b:28:90:91:40:a7:1a:e5:04:
        a0:d1:6f:4b:78:72:b7:6a:1d:2f:5c:05:06:7b:6c:5e:b7:c4:
        d9:1a:a0:10:bd:c6:9f:4a:fe:1a:be:4a:df:34:78:18:eb:a0:
        e0:8f:42:c7:33:e3:a7:37:31:e0:6b:e4:8b:08:a9:cd:42:fa:
        f5:bc:b0:72:3b:58:47:83:ec:a3:0c:48:ad:41:fe:bc:99:87:
        8a:36:2c:02:6f:b2:fd:6a
-----BEGIN CERTIFICATE-----
MIIGOzCCBCOgAwIBAgIUXusEqKUomJlI+xCGs7UeP7gcnn4wDQYJKoZIhvcNAQEL
BQAwgaQxEzARBgoJkiaJk/IsZAEZFgNlZHUxFDASBgoJkiaJk/IsZAEZFgR1Y3Nk
MRMwEQYKCZImiZPyLGQBGRYDZTRlMRUwEwYDVQQKDAxVQyBTYW4gRGllZ28xIjAg
BgNVBAsMGUVuZ2luZWVycyBmb3IgRXhwbG9yYXRpb24xJzAlBgNVBAMMHlVDU0Qg
RW5naW5lZXJzIGZvciBFeHBsb3JhdGlvbjAeFw0yNTAzMjYwMjQ5MzBaFw00NTAz
MjYwMjQ5MzBaMIGkMRMwEQYKCZImiZPyLGQBGRYDZWR1MRQwEgYKCZImiZPyLGQB
GRYEdWNzZDETMBEGCgmSJomT8ixkARkWA2U0ZTEVMBMGA1UECgwMVUMgU2FuIERp
ZWdvMSIwIAYDVQQLDBlFbmdpbmVlcnMgZm9yIEV4cGxvcmF0aW9uMScwJQYDVQQD
DB5VQ1NEIEVuZ2luZWVycyBmb3IgRXhwbG9yYXRpb24wggIiMA0GCSqGSIb3DQEB
AQUAA4ICDwAwggIKAoICAQCk5WYBpO7FxDEiw7z6vMnbMRZC0GKudITvy956Iu4X
Qz77rFLbLnUh2PMYhJF6YVXPyF9FKIyy3LYNAotHkaW7QNm4ZJCqZBnBCVnwP1YS
NUI1skBcPxlk2bKWwI6SIU5wtBCulVSin9JZ6MKZltLHLYO72hpHmiwot1lYDkez
dKIMAbEtpQkzX+kTLeeKjUwjoZJrBzrZXKwdLVn2eGQ4BylWQ7PmqW6g1AVxJVQ0
/yEKOxP2d57duoppl16QkpoZfx9FfED5lWxYU4nHJ0VDRxXgT6NEQ2lqW9yfANfJ
xSRaWLVsMyN1kHqkUY1oLnNmdj2BvzWz4taHdaHASfI3D2ikIOhPsaEaAl3suHL6
5+Gd6v/Z6T6WfBJBkyja9gbidxIn8bJVBo+OSyIA/67WbgW7saTEFS0lt8corRSn
nVpBGSgBNoE4PUtHmZYBaRFY7FTdV41waPaU0jIGIinnlbi7BnwVeuEZfqmEdsnv
/BZ0twbDnp6UrQOYUmwuoFaX/YzQ8ymtDMph2kVleUZCBeAVlJTDfyxepBkpp0U/
LniphPLsWBV/GTvaK54pWUSTcQ+dr+dH04Wu2ZWDvMibrOiWg+7d0KKwxYZF9NQ5
2+f5TgZXMuq45oPvXT0AuQxPWYKmoDJWWQfNb7et6a8fCO/t0asg2d1yUKK524RH
TwIDAQABo2MwYTAOBgNVHQ8BAf8EBAMCAQYwDwYDVR0TAQH/BAUwAwEB/zAdBgNV
HQ4EFgQUycmRU/lmb9/7VKYrOF5WgTC9uHcwHwYDVR0jBBgwFoAUycmRU/lmb9/7
VKYrOF5WgTC9uHcwDQYJKoZIhvcNAQELBQADggIBAGiLJUW/jtEQfNBCrfzwamaG
l96J/2BkzcfYA8rMFIzibo1XzmSPQz4UJ+lIKq2geu25AQ0PwJ1Von1ulYhtSXCk
4bSF6I/B1v1vXZAPsNBsydtGuwWg5GcaZw9VzHgNDwHFOAFS5TRCq4+614CYAGDr
Z0ryrbzKwPk4y/so1wAptiTFIxBvW5w6GhTGYKWbaBoh9kpSMORldEwm2M2kTwV5
+l8AsxhJFEXwCGWEaY9cSza3iZi3mFmbG3VaBw97K4M82IP/tIvnhsdvhHsZwRIF
Igg9zvmkKhoBKYoZzMfd9h63W8KqG172+NoBJTC12ros1Umadtvo1Nk16oyfKm2y
pZkct9IpXPIhZB0r7ohL/oW4KciQfrL2Htvy6mR1u6QW5yl5t6PuQTJYOqEvob+E
Ft5kx6fzPl8Wu2JHLb/o1d2E618WgQBorbxrJQnclcPrc+Tl+Ez28MuhJ3fLdlRN
8zeB4AegTzcn6r/OhlL45GQ2oV2/Q7YxMdPC2Nbm7nWvz5gq7e/cA7+wohsr5mXp
xH3yRrc4YfABy0HBRzfXPHBV4ULf/3sokJFApxrlBKDRb0t4crdqHS9cBQZ7bF63
xNkaoBC9xp9K/hq+St80eBjroOCPQscz46c3MeBr5IsIqc1C+vW8sHI7WEeD7KMM
SK1B/ryZh4o2LAJvsv1q
-----END CERTIFICATE-----
