Certificate:
    Data:
        Version: 3 (0x2)
        Serial Number:
            7c:c8:78:42:46:23:cf:76:82:70:1b:88:74:3c:53:5e:88:44:c4:9a
        Signature Algorithm: sha256WithRSAEncryption
        Issuer: DC=edu, DC=ucsd, DC=e4e, O=UC San Diego, OU=Engineers for Exploration, CN=UCSD Engineers for Exploration
        Validity
            Not Before: Sep  4 19:07:55 2025 GMT
            Not After : Sep  4 19:07:55 2027 GMT
        Subject: DC=edu, DC=ucsd, DC=workflows.fishsense.e4e, O=UC San Diego, OU=Engineers for Exploration, CN=workflows.fishsense.e4e.ucsd.edu
        Subject Public Key Info:
            Public Key Algorithm: rsaEncryption
                Public-Key: (4096 bit)
                Modulus:
                    00:89:19:f1:eb:41:29:9b:a8:12:6d:f0:74:5e:71:
                    95:0b:f1:18:34:58:e6:8e:d9:8b:e6:6d:ea:1a:19:
                    75:08:f9:75:5d:12:c6:e7:c0:d7:5d:fa:a0:a1:42:
                    ab:ad:0c:8d:e9:3f:c5:ee:30:0a:68:a5:80:83:57:
                    1b:8f:64:93:a5:89:01:54:80:2e:58:55:38:be:38:
                    b7:8e:fd:ab:8c:71:c4:43:02:28:b3:23:cd:c8:37:
                    b9:ac:f2:a0:06:f4:f2:d3:03:62:6c:42:0a:14:ae:
                    57:c9:17:2b:78:48:4d:13:3c:d6:66:26:f8:9a:6b:
                    48:9a:06:0e:35:6b:29:da:b4:40:53:39:09:5d:77:
                    c5:1c:9a:42:69:97:8a:11:95:f8:eb:f6:b3:43:f2:
                    b7:24:98:19:2d:91:4c:4f:00:14:d4:f0:f8:33:53:
                    26:b2:f7:d7:b5:15:f5:99:04:ce:c4:d0:b5:04:ce:
                    a1:27:24:16:d8:43:a6:02:e9:e8:c0:bb:f8:0e:21:
                    f6:d4:72:7d:40:b8:0f:10:14:54:ed:26:19:7d:7e:
                    94:bc:71:c7:c9:9b:c3:ba:f0:1b:de:7e:39:05:d1:
                    2e:6c:d6:2c:28:24:7b:03:2d:3b:2d:22:3f:7f:25:
                    bb:69:31:a1:a1:0c:bd:ae:86:ea:32:30:b5:d1:1b:
                    b6:7c:f8:97:f7:e4:c8:cd:e4:07:28:1d:46:ee:72:
                    f9:dc:6a:ed:f2:6a:5b:ac:15:3f:f1:5a:86:51:cd:
                    e0:3f:2a:42:d0:4f:58:3f:b8:82:4a:ad:0c:fb:97:
                    68:1f:2d:7e:8e:3f:fa:75:88:25:1a:14:23:0c:fe:
                    54:09:45:a9:dd:43:6b:12:c5:ff:9b:42:34:f0:67:
                    00:4a:1f:dd:54:5d:85:4d:bc:f8:a5:76:8e:81:e0:
                    69:c8:1f:04:1c:bf:23:5c:3b:4a:56:3d:87:8c:02:
                    6a:8c:d9:7f:81:0c:c9:f5:25:f6:ed:ac:4e:a8:7b:
                    70:fd:e1:0e:05:a3:f1:31:8c:2e:e0:3a:c7:47:61:
                    15:c0:af:24:57:df:65:33:b4:ee:53:7c:d6:bb:e1:
                    04:c7:90:ba:94:24:01:3a:c1:7d:12:bc:27:bb:93:
                    49:98:68:fa:15:f2:e1:ad:c4:56:35:63:7b:71:c4:
                    a0:f8:64:1f:26:ee:ad:7e:36:b5:75:42:5b:57:0c:
                    54:3c:8f:8c:4c:c0:a6:5d:75:ba:5a:8a:61:90:49:
                    cc:34:f3:1e:a5:8c:bf:af:ca:e1:91:1a:05:b5:05:
                    a8:b8:a7:43:82:63:cd:37:e7:63:c8:9f:3a:3d:ae:
                    35:0f:20:fd:42:bb:fc:6f:65:b9:93:64:ba:56:39:
                    75:9f:dd
                Exponent: 65537 (0x10001)
        X509v3 extensions:
            X509v3 Key Usage: critical
                Digital Signature, Key Encipherment
            X509v3 Basic Constraints: 
                CA:FALSE
            X509v3 Extended Key Usage: 
                TLS Web Server Authentication, TLS Web Client Authentication
            X509v3 Subject Key Identifier: 
                03:1C:12:D4:A8:2E:8E:26:6E:34:36:F0:82:57:67:8F:ED:68:29:92
            X509v3 Authority Key Identifier: 
                62:38:B1:82:A7:13:C1:4A:C2:71:9A:B6:03:C2:20:83:21:7F:26:81
            X509v3 Subject Alternative Name: 
                DNS:workflows.fishsense.e4e.ucsd.edu
    Signature Algorithm: sha256WithRSAEncryption
    Signature Value:
        1d:48:49:84:41:d0:7e:86:a4:7d:6b:c9:79:fd:a1:1c:99:f6:
        41:57:c2:88:48:72:07:41:af:77:39:6e:5d:2d:88:4c:cd:ac:
        ee:20:74:1d:97:8d:34:9c:68:2f:38:10:65:78:0b:84:2b:89:
        e5:80:43:09:bb:ef:bd:70:05:fd:36:ad:4e:10:80:81:72:3f:
        e5:f1:d0:21:84:ef:b8:02:05:c5:5f:39:7e:31:0f:ec:c2:29:
        c3:e5:5a:a2:96:40:3a:dd:ca:5c:ed:9d:77:91:7f:ea:04:21:
        35:fe:cd:c3:45:5e:87:93:37:d1:6f:1d:25:dc:4b:7e:eb:95:
        b7:eb:d4:7f:92:1f:08:06:17:8a:51:7a:78:89:6f:e5:e0:6d:
        1e:0b:f4:44:61:7d:0a:90:e6:07:e1:af:c9:f2:41:35:43:5c:
        bd:81:a4:9f:a1:bc:94:cc:1b:f4:a3:74:3a:0a:ad:33:98:fa:
        4f:c1:03:f9:28:c1:12:d2:a5:79:20:77:de:05:d0:d6:07:67:
        01:30:26:8c:8e:8c:dd:8b:67:41:99:97:d5:5a:c3:aa:bb:e0:
        88:48:ea:0c:58:71:8e:fd:38:96:df:01:45:a2:f2:98:21:2c:
        5e:dc:14:e0:80:c7:57:f2:e4:57:15:0c:7d:a4:79:64:a1:5f:
        59:b5:c0:21:73:46:c5:fa:2f:02:12:2b:2d:06:62:56:53:d8:
        82:1a:7b:73:c0:f3:9a:77:31:93:07:0d:4f:c4:c7:8f:39:10:
        d3:87:4d:c7:a6:a4:33:d2:ff:75:0a:3d:fa:b0:25:e5:14:6c:
        5e:2b:f2:37:c3:8f:da:ab:d3:09:37:a8:3a:04:79:c5:ad:4d:
        5a:ae:40:c2:7d:20:43:39:d1:4d:9f:d7:69:8a:a8:9e:f2:a9:
        00:77:a0:38:16:17:7b:1b:d7:26:4f:a4:c1:81:a1:91:20:5b:
        cb:3c:cf:45:75:67:98:ce:76:b4:b6:3b:23:b7:fc:55:18:3f:
        f0:01:45:00:ca:c9:22:25:a3:32:a5:a5:91:90:16:03:99:38:
        39:03:d2:8d:84:fe:0b:7d:62:76:34:3c:53:3e:f3:6e:bc:c7:
        ae:90:54:47:95:51:ea:d0:bc:a5:ce:fa:22:c4:6b:55:e0:8d:
        05:6d:67:a1:42:05:51:2d:63:bc:68:41:83:3e:8c:4f:95:7f:
        f2:c4:3c:0d:89:99:af:a2:55:d0:2b:ba:69:7f:6a:3b:dd:3a:
        b5:16:0f:e0:ea:dc:20:66:27:8e:42:07:af:96:11:f9:45:6b:
        e5:9f:aa:89:68:81:2d:7e:c0:70:e8:5f:26:21:76:68:1f:d1:
        93:16:ab:5f:9b:30:90:bd
-----BEGIN CERTIFICATE-----
MIIGmTCCBIGgAwIBAgIUfMh4QkYjz3aCcBuIdDxTXohExJowDQYJKoZIhvcNAQEL
BQAwgaQxEzARBgoJkiaJk/IsZAEZFgNlZHUxFDASBgoJkiaJk/IsZAEZFgR1Y3Nk
MRMwEQYKCZImiZPyLGQBGRYDZTRlMRUwEwYDVQQKDAxVQyBTYW4gRGllZ28xIjAg
BgNVBAsMGUVuZ2luZWVycyBmb3IgRXhwbG9yYXRpb24xJzAlBgNVBAMMHlVDU0Qg
RW5naW5lZXJzIGZvciBFeHBsb3JhdGlvbjAeFw0yNTA5MDQxOTA3NTVaFw0yNzA5
MDQxOTA3NTVaMIG6MRMwEQYKCZImiZPyLGQBGRYDZWR1MRQwEgYKCZImiZPyLGQB
GRYEdWNzZDEnMCUGCgmSJomT8ixkARkWF3dvcmtmbG93cy5maXNoc2Vuc2UuZTRl
MRUwEwYDVQQKDAxVQyBTYW4gRGllZ28xIjAgBgNVBAsMGUVuZ2luZWVycyBmb3Ig
RXhwbG9yYXRpb24xKTAnBgNVBAMMIHdvcmtmbG93cy5maXNoc2Vuc2UuZTRlLnVj
c2QuZWR1MIICIjANBgkqhkiG9w0BAQEFAAOCAg8AMIICCgKCAgEAiRnx60Epm6gS
bfB0XnGVC/EYNFjmjtmL5m3qGhl1CPl1XRLG58DXXfqgoUKrrQyN6T/F7jAKaKWA
g1cbj2STpYkBVIAuWFU4vji3jv2rjHHEQwIosyPNyDe5rPKgBvTy0wNibEIKFK5X
yRcreEhNEzzWZib4mmtImgYONWsp2rRAUzkJXXfFHJpCaZeKEZX46/azQ/K3JJgZ
LZFMTwAU1PD4M1MmsvfXtRX1mQTOxNC1BM6hJyQW2EOmAunowLv4DiH21HJ9QLgP
EBRU7SYZfX6UvHHHyZvDuvAb3n45BdEubNYsKCR7Ay07LSI/fyW7aTGhoQy9robq
MjC10Ru2fPiX9+TIzeQHKB1G7nL53Grt8mpbrBU/8VqGUc3gPypC0E9YP7iCSq0M
+5doHy1+jj/6dYglGhQjDP5UCUWp3UNrEsX/m0I08GcASh/dVF2FTbz4pXaOgeBp
yB8EHL8jXDtKVj2HjAJqjNl/gQzJ9SX27axOqHtw/eEOBaPxMYwu4DrHR2EVwK8k
V99lM7TuU3zWu+EEx5C6lCQBOsF9Erwnu5NJmGj6FfLhrcRWNWN7ccSg+GQfJu6t
fja1dUJbVwxUPI+MTMCmXXW6WophkEnMNPMepYy/r8rhkRoFtQWouKdDgmPNN+dj
yJ86Pa41DyD9Qrv8b2W5k2S6Vjl1n90CAwEAAaOBqjCBpzAOBgNVHQ8BAf8EBAMC
BaAwCQYDVR0TBAIwADAdBgNVHSUEFjAUBggrBgEFBQcDAQYIKwYBBQUHAwIwHQYD
VR0OBBYEFAMcEtSoLo4mbjQ28IJXZ4/taCmSMB8GA1UdIwQYMBaAFGI4sYKnE8FK
wnGatgPCIIMhfyaBMCsGA1UdEQQkMCKCIHdvcmtmbG93cy5maXNoc2Vuc2UuZTRl
LnVjc2QuZWR1MA0GCSqGSIb3DQEBCwUAA4ICAQAdSEmEQdB+hqR9a8l5/aEcmfZB
V8KISHIHQa93OW5dLYhMzazuIHQdl400nGgvOBBleAuEK4nlgEMJu++9cAX9Nq1O
EICBcj/l8dAhhO+4AgXFXzl+MQ/swinD5VqilkA63cpc7Z13kX/qBCE1/s3DRV6H
kzfRbx0l3Et+65W369R/kh8IBheKUXp4iW/l4G0eC/REYX0KkOYH4a/J8kE1Q1y9
gaSfobyUzBv0o3Q6Cq0zmPpPwQP5KMES0qV5IHfeBdDWB2cBMCaMjozdi2dBmZfV
WsOqu+CISOoMWHGO/TiW3wFFovKYISxe3BTggMdX8uRXFQx9pHlkoV9ZtcAhc0bF
+i8CEistBmJWU9iCGntzwPOadzGTBw1PxMePORDTh03HpqQz0v91Cj36sCXlFGxe
K/I3w4/aq9MJN6g6BHnFrU1arkDCfSBDOdFNn9dpiqie8qkAd6A4Fhd7G9cmT6TB
gaGRIFvLPM9FdWeYzna0tjsjt/xVGD/wAUUAyskiJaMypaWRkBYDmTg5A9KNhP4L
fWJ2NDxTPvNuvMeukFRHlVHq0LylzvoixGtV4I0FbWehQgVRLWO8aEGDPoxPlX/y
xDwNiZmvolXQK7ppf2o73Tq1Fg/g6twgZieOQgevlhH5RWvln6qJaIEtfsBw6F8m
IXZoH9GTFqtfmzCQvQ==
-----END CERTIFICATE-----

Certificate:
    Data:
        Version: 3 (0x2)
        Serial Number:
            57:d0:8a:d6:88:3e:6b:0c:20:ac:9c:dd:64:5a:7b:68:0e:48:a2:07
        Signature Algorithm: sha256WithRSAEncryption
        Issuer: DC=edu, DC=ucsd, DC=e4e, O=UC San Diego, OU=Engineers for Exploration, CN=UCSD Engineers for Exploration
        Validity
            Not Before: Mar 26 02:49:55 2025 GMT
            Not After : Mar 26 02:49:55 2035 GMT
        Subject: DC=edu, DC=ucsd, DC=e4e, O=UC San Diego, OU=Engineers for Exploration, CN=UCSD Engineers for Exploration
        Subject Public Key Info:
            Public Key Algorithm: rsaEncryption
                Public-Key: (4096 bit)
                Modulus:
                    00:ce:e4:dc:49:86:de:be:f2:ef:81:54:5c:83:eb:
                    12:7c:c5:5f:b7:ac:d8:b9:12:61:4c:34:9f:23:fd:
                    cf:cd:32:43:5d:19:bc:db:57:a7:1a:75:ec:c5:d5:
                    a4:bf:6f:77:85:d0:d4:d6:73:0f:cf:a0:d2:85:8e:
                    82:1b:eb:ea:8f:f6:a7:a6:18:46:b5:da:d3:ac:a4:
                    d4:74:9b:9e:fe:1d:81:38:20:42:60:a0:5e:d3:da:
                    0a:da:46:04:f3:7e:65:5d:2d:ae:67:3a:80:01:0d:
                    1e:4d:e3:b3:f2:1e:b3:f0:3b:9e:57:1f:bc:c3:dd:
                    3c:07:75:fa:5f:3a:44:e0:3a:63:de:3d:25:3e:67:
                    8b:c8:18:66:72:4c:76:fc:c3:d2:e3:18:d6:17:d3:
                    4f:d6:51:be:2d:58:7c:58:b5:a9:4f:07:59:db:d1:
                    95:ff:d9:25:08:62:06:d4:9c:a9:dc:b6:8a:45:d7:
                    2e:4a:0c:de:9e:14:65:10:ec:57:c2:e4:41:3d:8f:
                    38:8b:6c:69:06:d1:72:5c:24:36:5f:15:f7:06:e5:
                    fe:1b:3d:9c:b6:01:c7:31:ad:7d:91:96:41:21:ad:
                    1f:60:26:e0:bb:8d:05:85:c5:0b:95:9d:ce:a6:11:
                    a9:bc:9f:50:80:b4:1c:41:1e:f9:3d:db:67:d7:c6:
                    ae:af:1b:85:b1:94:1f:b9:fc:18:0f:f2:b0:78:62:
                    59:39:bf:05:6d:7a:e7:36:6c:75:ac:b0:48:7c:4a:
                    94:9c:74:58:d9:4c:55:fd:f0:f6:e2:2b:22:f6:cc:
                    ad:35:41:ee:2b:a2:2a:3a:71:71:e8:3c:df:22:1f:
                    a3:98:af:36:85:57:bc:78:d2:c4:87:8b:3b:25:23:
                    7f:67:39:35:5e:5a:7c:69:ea:26:2c:02:60:f4:90:
                    80:df:f9:58:ea:5e:c0:47:03:9a:06:41:9a:f8:c3:
                    9a:5b:c2:42:7b:38:2c:d6:51:5f:cc:96:bb:c0:6c:
                    3f:4f:8c:f5:c0:ba:25:05:e6:aa:46:3b:5a:e9:33:
                    d0:6a:f2:6d:b3:1d:dc:a3:7a:10:67:f2:95:d2:26:
                    21:0b:4e:a5:2b:73:2d:0a:f8:41:93:91:91:77:a1:
                    ca:c9:5b:ec:49:17:7b:7e:07:50:c5:50:5d:01:b0:
                    5e:70:05:ca:8f:ab:89:ce:7a:19:a4:05:ca:73:03:
                    7f:44:0e:70:27:7c:a8:ce:9c:f6:8c:d4:74:1b:97:
                    01:5e:a8:d4:7b:38:8c:ea:23:28:7f:b4:d5:1f:2c:
                    27:b0:00:8e:f4:c4:87:4d:3a:76:b4:c7:67:fb:34:
                    6e:a5:6a:02:c5:fe:6f:b4:99:94:24:8d:41:11:a9:
                    48:fe:df
                Exponent: 65537 (0x10001)
        X509v3 extensions:
            X509v3 Key Usage: critical
                Certificate Sign, CRL Sign
            X509v3 Basic Constraints: critical
                CA:TRUE, pathlen:0
            X509v3 Subject Key Identifier: 
                62:38:B1:82:A7:13:C1:4A:C2:71:9A:B6:03:C2:20:83:21:7F:26:81
            X509v3 Authority Key Identifier: 
                C9:C9:91:53:F9:66:6F:DF:FB:54:A6:2B:38:5E:56:81:30:BD:B8:77
    Signature Algorithm: sha256WithRSAEncryption
    Signature Value:
        47:07:bb:c2:bd:8a:ad:18:ad:5b:5c:c0:45:d7:b1:69:af:e7:
        ab:32:9f:ee:63:d8:f1:90:48:89:80:f1:3e:a4:63:5e:89:5f:
        83:45:72:22:99:0d:78:c5:79:e8:02:eb:56:d9:e9:09:e4:5c:
        bf:2c:b3:d2:66:60:da:e4:ba:0b:32:d2:21:c1:be:64:14:39:
        c1:6f:4f:ff:30:ed:c5:3c:ff:84:97:ce:5d:fb:c1:ef:36:d5:
        a5:d9:bb:0b:54:74:b9:8b:28:20:4c:36:f2:63:c4:a2:de:36:
        43:7a:f0:2d:f4:f4:53:38:87:54:d1:a9:4e:b8:5f:f0:3a:16:
        dc:0f:ed:7a:a8:a6:22:d6:0b:58:cd:6b:e9:48:6e:e8:3e:dc:
        a8:b1:54:f5:82:1c:01:bf:51:ee:2f:ac:44:9b:cd:24:5b:eb:
        4b:87:94:3f:37:ff:20:57:cf:fb:f4:d2:d3:11:36:81:93:f2:
        60:80:cd:ed:da:ef:be:44:ea:1f:be:e3:1c:25:98:45:11:af:
        c4:dc:e3:d1:ae:d5:43:18:b5:fe:76:a7:3a:15:c0:ab:e9:4b:
        3c:c6:98:87:e2:d6:54:ad:ae:d8:48:a5:2f:3b:13:3c:13:16:
        d7:f5:0f:1a:58:29:49:5a:55:ed:06:9d:b6:e2:0a:dc:72:2f:
        f7:23:d9:84:e1:8a:d6:d2:ee:f5:ae:46:55:80:86:a3:94:01:
        d5:23:9b:2e:4e:78:cb:f0:4f:5b:45:a6:9f:2b:ac:9d:61:1c:
        77:2a:d7:9b:ed:70:bc:b5:d2:19:f1:23:68:bd:e6:6e:e8:2a:
        bb:90:a4:e8:d8:19:04:b5:6d:0c:6e:20:b5:a3:5b:e7:ad:15:
        a2:b3:4d:ff:c5:66:19:9e:5b:ab:db:f8:43:f8:94:85:ac:1d:
        fb:d1:b0:3a:a6:94:46:7c:10:58:f6:d9:e7:f6:37:09:bd:5a:
        6c:9e:33:0e:c3:99:bc:52:d8:38:b3:d7:05:c0:14:ee:17:d5:
        27:8c:c8:fe:80:d1:b9:1a:11:47:a9:77:51:41:49:b7:38:2f:
        ff:f5:0a:d9:e1:84:89:d7:ce:5a:49:1d:2a:40:52:92:f9:a1:
        82:0a:26:24:60:a2:00:b8:03:f7:95:ad:d6:aa:86:09:64:6c:
        a0:e7:af:1d:35:eb:b7:62:93:a8:e6:fe:03:85:cc:41:8d:38:
        1b:cf:60:a7:ff:47:d9:51:63:38:69:a0:d8:1b:d9:f1:f7:14:
        d0:e8:2a:ed:6a:2d:1e:71:bf:42:0c:7c:ac:bf:15:1d:df:64:
        13:51:06:1b:1a:3b:38:bf:aa:21:28:2e:dd:c7:c8:8f:47:2d:
        5c:58:5c:53:7a:1b:31:93
-----BEGIN CERTIFICATE-----
MIIGPjCCBCagAwIBAgIUV9CK1og+awwgrJzdZFp7aA5IogcwDQYJKoZIhvcNAQEL
BQAwgaQxEzARBgoJkiaJk/IsZAEZFgNlZHUxFDASBgoJkiaJk/IsZAEZFgR1Y3Nk
MRMwEQYKCZImiZPyLGQBGRYDZTRlMRUwEwYDVQQKDAxVQyBTYW4gRGllZ28xIjAg
BgNVBAsMGUVuZ2luZWVycyBmb3IgRXhwbG9yYXRpb24xJzAlBgNVBAMMHlVDU0Qg
RW5naW5lZXJzIGZvciBFeHBsb3JhdGlvbjAeFw0yNTAzMjYwMjQ5NTVaFw0zNTAz
MjYwMjQ5NTVaMIGkMRMwEQYKCZImiZPyLGQBGRYDZWR1MRQwEgYKCZImiZPyLGQB
GRYEdWNzZDETMBEGCgmSJomT8ixkARkWA2U0ZTEVMBMGA1UECgwMVUMgU2FuIERp
ZWdvMSIwIAYDVQQLDBlFbmdpbmVlcnMgZm9yIEV4cGxvcmF0aW9uMScwJQYDVQQD
DB5VQ1NEIEVuZ2luZWVycyBmb3IgRXhwbG9yYXRpb24wggIiMA0GCSqGSIb3DQEB
AQUAA4ICDwAwggIKAoICAQDO5NxJht6+8u+BVFyD6xJ8xV+3rNi5EmFMNJ8j/c/N
MkNdGbzbV6cadezF1aS/b3eF0NTWcw/PoNKFjoIb6+qP9qemGEa12tOspNR0m57+
HYE4IEJgoF7T2graRgTzfmVdLa5nOoABDR5N47PyHrPwO55XH7zD3TwHdfpfOkTg
OmPePSU+Z4vIGGZyTHb8w9LjGNYX00/WUb4tWHxYtalPB1nb0ZX/2SUIYgbUnKnc
topF1y5KDN6eFGUQ7FfC5EE9jziLbGkG0XJcJDZfFfcG5f4bPZy2AccxrX2RlkEh
rR9gJuC7jQWFxQuVnc6mEam8n1CAtBxBHvk922fXxq6vG4WxlB+5/BgP8rB4Ylk5
vwVteuc2bHWssEh8SpScdFjZTFX98PbiKyL2zK01Qe4roio6cXHoPN8iH6OYrzaF
V7x40sSHizslI39nOTVeWnxp6iYsAmD0kIDf+VjqXsBHA5oGQZr4w5pbwkJ7OCzW
UV/MlrvAbD9PjPXAuiUF5qpGO1rpM9Bq8m2zHdyjehBn8pXSJiELTqUrcy0K+EGT
kZF3ocrJW+xJF3t+B1DFUF0BsF5wBcqPq4nOehmkBcpzA39EDnAnfKjOnPaM1HQb
lwFeqNR7OIzqIyh/tNUfLCewAI70xIdNOna0x2f7NG6lagLF/m+0mZQkjUERqUj+
3wIDAQABo2YwZDAOBgNVHQ8BAf8EBAMCAQYwEgYDVR0TAQH/BAgwBgEB/wIBADAd
BgNVHQ4EFgQUYjixgqcTwUrCcZq2A8IggyF/JoEwHwYDVR0jBBgwFoAUycmRU/lm
b9/7VKYrOF5WgTC9uHcwDQYJKoZIhvcNAQELBQADggIBAEcHu8K9iq0YrVtcwEXX
sWmv56syn+5j2PGQSImA8T6kY16JX4NFciKZDXjFeegC61bZ6QnkXL8ss9JmYNrk
ugsy0iHBvmQUOcFvT/8w7cU8/4SXzl37we821aXZuwtUdLmLKCBMNvJjxKLeNkN6
8C309FM4h1TRqU64X/A6FtwP7XqopiLWC1jNa+lIbug+3KixVPWCHAG/Ue4vrESb
zSRb60uHlD83/yBXz/v00tMRNoGT8mCAze3a775E6h++4xwlmEURr8Tc49Gu1UMY
tf52pzoVwKvpSzzGmIfi1lStrthIpS87EzwTFtf1DxpYKUlaVe0GnbbiCtxyL/cj
2YThitbS7vWuRlWAhqOUAdUjmy5OeMvwT1tFpp8rrJ1hHHcq15vtcLy10hnxI2i9
5m7oKruQpOjYGQS1bQxuILWjW+etFaKzTf/FZhmeW6vb+EP4lIWsHfvRsDqmlEZ8
EFj22ef2Nwm9WmyeMw7DmbxS2Diz1wXAFO4X1SeMyP6A0bkaEUepd1FBSbc4L//1
CtnhhInXzlpJHSpAUpL5oYIKJiRgogC4A/eVrdaqhglkbKDnrx0167dik6jm/gOF
zEGNOBvPYKf/R9lRYzhpoNgb2fH3FNDoKu1qLR5xv0IMfKy/FR3fZBNRBhsaOzi/
qiEoLt3HyI9HLVxYXFN6GzGT
-----END CERTIFICATE-----
